; Function Attrs: mustprogress nounwind uwtable
define hidden void @_ZN22XPhysicalMemoryManager4freeERK15XPhysicalMemory(ptr noundef nonnull align 8 dereferenceable(160) %0, ptr nocapture noundef nonnull readonly align 8 dereferenceable(16) %1) local_unnamed_addr #1 align 2 {
  %3 = load i32, ptr %1, align 8
  %4 = icmp sgt i32 %3, 0
  br i1 %4, label %.lr.ph, label %._crit_edge

.lr.ph:                                           ; preds = %2
  %5 = getelementptr inbounds i8, ptr %1, i64 8
  %6 = getelementptr inbounds i8, ptr %0, i64 48
  br label %7

7:                                                ; preds = %.lr.ph, %7
  %indvars.iv = phi i64 [ 0, %.lr.ph ], [ %indvars.iv.next, %7 ]
  %8 = load ptr, ptr %5, align 8
  %9 = getelementptr inbounds %class.XPhysicalMemorySegment, ptr %8, i64 %indvars.iv
  %10 = load i64, ptr %9, align 8
  %11 = getelementptr inbounds i8, ptr %9, i64 8
  %12 = load i64, ptr %11, align 8
  %13 = sub i64 %12, %10
  tail call void @_ZN14XMemoryManager4freeEmm(ptr noundef nonnull align 8 dereferenceable(112) %6, i64 noundef %10, i64 noundef %13) #13
  %indvars.iv.next = add nuw nsw i64 %indvars.iv, 1
  %14 = load i32, ptr %1, align 8
  %15 = sext i32 %14 to i64
  %16 = icmp slt i64 %indvars.iv.next, %15
  br i1 %16, label %7, label %._crit_edge, !llvm.loop !19

._crit_edge:                                      ; preds = %7, %2
  ret void
}